target datalayout = "e-m:e-p270:32:32-p271:32:32-p272:64:64-i64:64-i128:128-f80:128-n8:16:32:64-S128"
target triple = "x86_64-pc-linux-gnu"

%struct.Abc_Ntk_t_ = type { i32, i32, ptr, ptr, ptr, ptr, ptr, ptr, ptr, ptr, ptr, ptr, ptr, [11 x i32], i32, i32, i32, i32, ptr, i32, ptr, ptr, i32, i32, i32, double, i32, %struct.Vec_Int_t_, ptr, ptr, ptr, ptr, ptr, float, i32, ptr, ptr, ptr, ptr, ptr, ptr, ptr, ptr, ptr, ptr, ptr, ptr, ptr, ptr, ptr, ptr, ptr, ptr, ptr, ptr, ptr, ptr }
%struct.Vec_Int_t_ = type { i32, i32, ptr }

@stdout = external global ptr, align 8
@.str = private unnamed_addr constant [51 x i8] c"Abc_NtkRetimeMinArea(): Network check has failed.\0A\00", align 1

; Function Attrs: inlinehint nounwind uwtable
define internal void @Vec_IntFree(ptr noundef %0) #2 {
  %2 = alloca ptr, align 8
  store ptr %0, ptr %2, align 8, !tbaa !10
  %3 = load ptr, ptr %2, align 8, !tbaa !10
  %4 = getelementptr inbounds nuw %struct.Vec_Int_t_, ptr %3, i32 0, i32 2
  %5 = load ptr, ptr %4, align 8, !tbaa !19
  %6 = icmp ne ptr %5, null
  br i1 %6, label %7, label %13

7:                                                ; preds = %1
  %8 = load ptr, ptr %2, align 8, !tbaa !10
  %9 = getelementptr inbounds nuw %struct.Vec_Int_t_, ptr %8, i32 0, i32 2
  %10 = load ptr, ptr %9, align 8, !tbaa !19
  call void @free(ptr noundef %10) #7
  %11 = load ptr, ptr %2, align 8, !tbaa !10
  %12 = getelementptr inbounds nuw %struct.Vec_Int_t_, ptr %11, i32 0, i32 2
  store ptr null, ptr %12, align 8, !tbaa !19
  br label %14

13:                                               ; preds = %1
  br label %14

14:                                               ; preds = %13, %7
  %15 = load ptr, ptr %2, align 8, !tbaa !10
  %16 = icmp ne ptr %15, null
  br i1 %16, label %17, label %19

17:                                               ; preds = %14
  %18 = load ptr, ptr %2, align 8, !tbaa !10
  call void @free(ptr noundef %18) #7
  store ptr null, ptr %2, align 8, !tbaa !10
  br label %20

19:                                               ; preds = %14
  br label %20

20:                                               ; preds = %19, %17
  ret void
}

; Function Attrs: inlinehint nounwind uwtable
define internal i32 @Abc_NtkLatchNum(ptr noundef %0) #2 {
  %2 = alloca ptr, align 8
  store ptr %0, ptr %2, align 8, !tbaa !3
  %3 = load ptr, ptr %2, align 8, !tbaa !3
  %4 = getelementptr inbounds nuw %struct.Abc_Ntk_t_, ptr %3, i32 0, i32 13
  %5 = getelementptr inbounds [11 x i32], ptr %4, i64 0, i64 8
  %6 = load i32, ptr %5, align 8, !tbaa !8
  ret i32 %6
}

; Function Attrs: nounwind uwtable
define i32 @Abc_NtkRetimeMinArea(ptr noundef %0, i32 noundef %1, i32 noundef %2, i32 noundef %3, i32 noundef %4) #0 {
  %6 = alloca ptr, align 8
  %7 = alloca i32, align 4
  %8 = alloca i32, align 4
  %9 = alloca i32, align 4
  %10 = alloca i32, align 4
  %11 = alloca ptr, align 8
  %12 = alloca ptr, align 8
  %13 = alloca ptr, align 8
  %14 = alloca ptr, align 8
  %15 = alloca i32, align 4
  %16 = alloca i32, align 4
  store ptr %0, ptr %6, align 8, !tbaa !3
  store i32 %1, ptr %7, align 4, !tbaa !8
  store i32 %2, ptr %8, align 4, !tbaa !8
  store i32 %3, ptr %9, align 4, !tbaa !8
  store i32 %4, ptr %10, align 4, !tbaa !8
  call void @llvm.lifetime.start.p0(i64 8, ptr %11) #7
  store ptr null, ptr %11, align 8, !tbaa !3
  call void @llvm.lifetime.start.p0(i64 8, ptr %12) #7
  call void @llvm.lifetime.start.p0(i64 8, ptr %13) #7
  store ptr null, ptr %13, align 8, !tbaa !10
  call void @llvm.lifetime.start.p0(i64 8, ptr %14) #7
  call void @llvm.lifetime.start.p0(i64 4, ptr %15) #7
  %17 = load ptr, ptr %6, align 8, !tbaa !3
  %18 = call i32 @Abc_NtkLatchNum(ptr noundef %17)
  store i32 %18, ptr %15, align 4, !tbaa !8
  call void @llvm.lifetime.start.p0(i64 4, ptr %16) #7
  store i32 0, ptr %16, align 4, !tbaa !8
  %19 = load ptr, ptr %6, align 8, !tbaa !3
  call void @Abc_NtkOrderCisCos(ptr noundef %19)
  %20 = load i32, ptr %8, align 4, !tbaa !8
  %21 = icmp ne i32 %20, 0
  br i1 %21, label %40, label %22

22:                                               ; preds = %5
  %23 = load i32, ptr %16, align 4, !tbaa !8
  %24 = icmp ne i32 %23, 0
  br i1 %24, label %25, label %30

25:                                               ; preds = %22
  %26 = load ptr, ptr %6, align 8, !tbaa !3
  %27 = load i32, ptr %9, align 4, !tbaa !8
  %28 = load i32, ptr %10, align 4, !tbaa !8
  %29 = call ptr @Abc_NtkRetimeMinAreaOne(ptr noundef %26, i32 noundef 1, i32 noundef %27, i32 noundef %28)
  br label %39

30:                                               ; preds = %22
  br label %31

31:                                               ; preds = %37, %30
  %32 = load ptr, ptr %6, align 8, !tbaa !3
  %33 = load i32, ptr %9, align 4, !tbaa !8
  %34 = load i32, ptr %10, align 4, !tbaa !8
  %35 = call ptr @Abc_NtkRetimeMinAreaOne(ptr noundef %32, i32 noundef 1, i32 noundef %33, i32 noundef %34)
  %36 = icmp ne ptr %35, null
  br i1 %36, label %37, label %38

37:                                               ; preds = %31
  br label %31, !llvm.loop !12

38:                                               ; preds = %31
  br label %39

39:                                               ; preds = %38, %25
  br label %40

40:                                               ; preds = %39, %5
  %41 = load ptr, ptr %6, align 8, !tbaa !3
  %42 = call ptr @Abc_NtkCollectLatchValues(ptr noundef %41)
  store ptr %42, ptr %14, align 8, !tbaa !10
  %43 = load i32, ptr %7, align 4, !tbaa !8
  %44 = icmp ne i32 %43, 0
  br i1 %44, label %66, label %45

45:                                               ; preds = %40
  %46 = load i32, ptr %16, align 4, !tbaa !8
  %47 = icmp ne i32 %46, 0
  br i1 %47, label %48, label %53

48:                                               ; preds = %45
  %49 = load ptr, ptr %6, align 8, !tbaa !3
  %50 = load i32, ptr %9, align 4, !tbaa !8
  %51 = load i32, ptr %10, align 4, !tbaa !8
  %52 = call ptr @Abc_NtkRetimeMinAreaOne(ptr noundef %49, i32 noundef 0, i32 noundef %50, i32 noundef %51)
  store ptr %52, ptr %11, align 8, !tbaa !3
  br label %65

53:                                               ; preds = %45
  br label %54

54:                                               ; preds = %60, %53
  %55 = load ptr, ptr %6, align 8, !tbaa !3
  %56 = load i32, ptr %9, align 4, !tbaa !8
  %57 = load i32, ptr %10, align 4, !tbaa !8
  %58 = call ptr @Abc_NtkRetimeMinAreaOne(ptr noundef %55, i32 noundef 0, i32 noundef %56, i32 noundef %57)
  store ptr %58, ptr %12, align 8, !tbaa !3
  %59 = icmp ne ptr %58, null
  br i1 %59, label %60, label %64

60:                                               ; preds = %54
  %61 = load ptr, ptr %11, align 8, !tbaa !3
  %62 = load ptr, ptr %12, align 8, !tbaa !3
  %63 = call ptr @Abc_NtkAttachBottom(ptr noundef %61, ptr noundef %62)
  store ptr %63, ptr %11, align 8, !tbaa !3
  br label %54, !llvm.loop !14

64:                                               ; preds = %54
  br label %65

65:                                               ; preds = %64, %48
  br label %66

66:                                               ; preds = %65, %40
  %67 = load ptr, ptr %11, align 8, !tbaa !3
  %68 = load ptr, ptr %14, align 8, !tbaa !10
  %69 = load i32, ptr %10, align 4, !tbaa !8
  %70 = call ptr @Abc_NtkRetimeInitialValues(ptr noundef %67, ptr noundef %68, i32 noundef %69)
  store ptr %70, ptr %13, align 8, !tbaa !10
  %71 = load ptr, ptr %11, align 8, !tbaa !3
  %72 = icmp ne ptr %71, null
  br i1 %72, label %73, label %75

73:                                               ; preds = %66
  %74 = load ptr, ptr %11, align 8, !tbaa !3
  call void @Abc_NtkDelete(ptr noundef %74)
  br label %75

75:                                               ; preds = %73, %66
  %76 = load ptr, ptr %6, align 8, !tbaa !3
  %77 = load ptr, ptr %13, align 8, !tbaa !10
  call void @Abc_NtkInsertLatchValues(ptr noundef %76, ptr noundef %77)
  %78 = load ptr, ptr %13, align 8, !tbaa !10
  %79 = icmp ne ptr %78, null
  br i1 %79, label %80, label %82

80:                                               ; preds = %75
  %81 = load ptr, ptr %13, align 8, !tbaa !10
  call void @Vec_IntFree(ptr noundef %81)
  br label %82

82:                                               ; preds = %80, %75
  %83 = load ptr, ptr %14, align 8, !tbaa !10
  %84 = icmp ne ptr %83, null
  br i1 %84, label %85, label %87

85:                                               ; preds = %82
  %86 = load ptr, ptr %14, align 8, !tbaa !10
  call void @Vec_IntFree(ptr noundef %86)
  br label %87

87:                                               ; preds = %85, %82
  %88 = load ptr, ptr %6, align 8, !tbaa !3
  %89 = call i32 @Abc_NtkCheck(ptr noundef %88)
  %90 = icmp ne i32 %89, 0
  br i1 %90, label %94, label %91

91:                                               ; preds = %87
  %92 = load ptr, ptr @stdout, align 8, !tbaa !15
  %93 = call i32 (ptr, ptr, ...) @fprintf(ptr noundef %92, ptr noundef @.str) #7
  br label %94

94:                                               ; preds = %91, %87
  %95 = load i32, ptr %15, align 4, !tbaa !8
  %96 = load ptr, ptr %6, align 8, !tbaa !3
  %97 = call i32 @Abc_NtkLatchNum(ptr noundef %96)
  %98 = sub nsw i32 %95, %97
  call void @llvm.lifetime.end.p0(i64 4, ptr %16) #7
  call void @llvm.lifetime.end.p0(i64 4, ptr %15) #7
  call void @llvm.lifetime.end.p0(i64 8, ptr %14) #7
  call void @llvm.lifetime.end.p0(i64 8, ptr %13) #7
  call void @llvm.lifetime.end.p0(i64 8, ptr %12) #7
  call void @llvm.lifetime.end.p0(i64 8, ptr %11) #7
  ret i32 %98
}