; Function Attrs: nounwind uwtable
define i32 @Abc_NtkRetimeMinArea(ptr noundef %0, i32 noundef %1, i32 noundef %2, i32 noundef %3, i32 noundef %4) local_unnamed_addr #0 {
  %6 = getelementptr i8, ptr %0, i64 128
  %.val = load i32, ptr %6, align 8, !tbaa !3
  tail call void @Abc_NtkOrderCisCos(ptr noundef %0) #9
  %.not = icmp eq i32 %2, 0
  br i1 %.not, label %.preheader49, label %.loopexit

.preheader49:                                     ; preds = %5, %.preheader49
  %7 = tail call fastcc ptr @Abc_NtkRetimeMinAreaOne(ptr noundef %0, i32 noundef 1, i32 noundef %3, i32 noundef %4)
  %.not37 = icmp eq ptr %7, null
  br i1 %.not37, label %.loopexit, label %.preheader49, !llvm.loop !7

.loopexit:                                        ; preds = %.preheader49, %5
  %8 = tail call ptr @Abc_NtkCollectLatchValues(ptr noundef %0) #9
  %.not38 = icmp eq i32 %1, 0
  br i1 %.not38, label %.preheader, label %.thread

.preheader:                                       ; preds = %.loopexit
  %9 = tail call fastcc ptr @Abc_NtkRetimeMinAreaOne(ptr noundef %0, i32 noundef 0, i32 noundef %3, i32 noundef %4)
  %.not3950 = icmp eq ptr %9, null
  br i1 %.not3950, label %._crit_edge.thread, label %.lr.ph

._crit_edge.thread:                               ; preds = %.preheader
  %10 = tail call ptr @Abc_NtkRetimeInitialValues(ptr noundef null, ptr noundef %8, i32 noundef %4) #9
  br label %17

.thread:                                          ; preds = %.loopexit
  %11 = tail call ptr @Abc_NtkRetimeInitialValues(ptr noundef null, ptr noundef %8, i32 noundef %4) #9
  br label %17

.lr.ph:                                           ; preds = %.preheader, %.lr.ph
  %12 = phi ptr [ %14, %.lr.ph ], [ %9, %.preheader ]
  %.151 = phi ptr [ %13, %.lr.ph ], [ null, %.preheader ]
  %13 = tail call ptr @Abc_NtkAttachBottom(ptr noundef %.151, ptr noundef nonnull %12) #9
  %14 = tail call fastcc ptr @Abc_NtkRetimeMinAreaOne(ptr noundef %0, i32 noundef 0, i32 noundef %3, i32 noundef %4)
  %.not39 = icmp eq ptr %14, null
  br i1 %.not39, label %._crit_edge, label %.lr.ph, !llvm.loop !9

._crit_edge:                                      ; preds = %.lr.ph
  %15 = tail call ptr @Abc_NtkRetimeInitialValues(ptr noundef %13, ptr noundef %8, i32 noundef %4) #9
  %.not40 = icmp eq ptr %13, null
  br i1 %.not40, label %17, label %16

16:                                               ; preds = %._crit_edge
  tail call void @Abc_NtkDelete(ptr noundef nonnull %13) #9
  br label %17

17:                                               ; preds = %._crit_edge.thread, %.thread, %16, %._crit_edge
  %18 = phi ptr [ %11, %.thread ], [ %15, %16 ], [ %15, %._crit_edge ], [ %10, %._crit_edge.thread ]
  tail call void @Abc_NtkInsertLatchValues(ptr noundef %0, ptr noundef %18) #9
  %.not41 = icmp eq ptr %18, null
  br i1 %.not41, label %23, label %19

19:                                               ; preds = %17
  %20 = getelementptr inbounds nuw i8, ptr %18, i64 8
  %21 = load ptr, ptr %20, align 8, !tbaa !10
  %.not.i = icmp eq ptr %21, null
  br i1 %.not.i, label %Vec_IntFree.exit, label %22

22:                                               ; preds = %19
  tail call void @free(ptr noundef nonnull %21) #9
  br label %Vec_IntFree.exit

Vec_IntFree.exit:                                 ; preds = %19, %22
  tail call void @free(ptr noundef nonnull %18) #9
  br label %23

23:                                               ; preds = %Vec_IntFree.exit, %17
  %.not42 = icmp eq ptr %8, null
  br i1 %.not42, label %28, label %24

24:                                               ; preds = %23
  %25 = getelementptr inbounds nuw i8, ptr %8, i64 8
  %26 = load ptr, ptr %25, align 8, !tbaa !10
  %.not.i45 = icmp eq ptr %26, null
  br i1 %.not.i45, label %Vec_IntFree.exit46, label %27

27:                                               ; preds = %24
  tail call void @free(ptr noundef nonnull %26) #9
  br label %Vec_IntFree.exit46

Vec_IntFree.exit46:                               ; preds = %24, %27
  tail call void @free(ptr noundef nonnull %8) #9
  br label %28

28:                                               ; preds = %Vec_IntFree.exit46, %23
  %29 = tail call i32 @Abc_NtkCheck(ptr noundef %0) #9
  %.not43 = icmp eq i32 %29, 0
  br i1 %.not43, label %30, label %33

30:                                               ; preds = %28
  %31 = load ptr, ptr @stdout, align 8, !tbaa !14
  %32 = tail call i64 @fwrite(ptr nonnull @.str, i64 50, i64 1, ptr %31)
  br label %33

33:                                               ; preds = %30, %28
  %.val44 = load i32, ptr %6, align 8, !tbaa !3
  %34 = sub nsw i32 %.val, %.val44
  ret i32 %34
}